; ModuleID = '22/218.c'
source_filename = "22/218.c"
target datalayout = "e-m:e-p270:32:32-p271:32:32-p272:64:64-i64:64-f80:128-n8:16:32:64-S128"
target triple = "x86_64-pc-linux-gnu"

@.str = private unnamed_addr constant [3 x i8] c"%d\00", align 1
@.str.1 = private unnamed_addr constant [2 x i8] c",\00", align 1
@.str.2 = private unnamed_addr constant [3 x i8] c"No\00", align 1

; Function Attrs: noinline nounwind uwtable
define dso_local void @main() #0 {
  %1 = alloca [400 x i32], align 16
  %2 = alloca i32, align 4
  %3 = alloca i32, align 4
  %4 = alloca i32, align 4
  %5 = alloca i32, align 4
  store i32 0, i32* %2, align 4
  br label %6

6:                                                ; preds = %12, %0
  %7 = load i32, i32* %2, align 4
  %8 = sext i32 %7 to i64
  %9 = getelementptr inbounds [400 x i32], [400 x i32]* %1, i64 0, i64 %8
  %10 = call i32 (i8*, ...) @__isoc99_scanf(i8* getelementptr inbounds ([3 x i8], [3 x i8]* @.str, i64 0, i64 0), i32* %9)
  %11 = icmp ne i32 %10, -1
  br i1 %11, label %12, label %16

12:                                               ; preds = %6
  %13 = call i32 (i8*, ...) @__isoc99_scanf(i8* getelementptr inbounds ([2 x i8], [2 x i8]* @.str.1, i64 0, i64 0))
  %14 = load i32, i32* %2, align 4
  %15 = add nsw i32 %14, 1
  store i32 %15, i32* %2, align 4
  br label %6

16:                                               ; preds = %6
  %17 = load i32, i32* %2, align 4
  %18 = add nsw i32 %17, -1
  store i32 %18, i32* %2, align 4
  store i32 0, i32* %3, align 4
  store i32 -1, i32* %5, align 4
  store i32 0, i32* %4, align 4
  br label %19

19:                                               ; preds = %36, %16
  %20 = load i32, i32* %4, align 4
  %21 = load i32, i32* %2, align 4
  %22 = icmp sle i32 %20, %21
  br i1 %22, label %23, label %39

23:                                               ; preds = %19
  %24 = load i32, i32* %3, align 4
  %25 = load i32, i32* %4, align 4
  %26 = sext i32 %25 to i64
  %27 = getelementptr inbounds [400 x i32], [400 x i32]* %1, i64 0, i64 %26
  %28 = load i32, i32* %27, align 4
  %29 = icmp slt i32 %24, %28
  br i1 %29, label %30, label %35

30:                                               ; preds = %23
  %31 = load i32, i32* %4, align 4
  %32 = sext i32 %31 to i64
  %33 = getelementptr inbounds [400 x i32], [400 x i32]* %1, i64 0, i64 %32
  %34 = load i32, i32* %33, align 4
  store i32 %34, i32* %3, align 4
  br label %35

35:                                               ; preds = %30, %23
  br label %36

36:                                               ; preds = %35
  %37 = load i32, i32* %4, align 4
  %38 = add nsw i32 %37, 1
  store i32 %38, i32* %4, align 4
  br label %19

39:                                               ; preds = %19
  store i32 0, i32* %4, align 4
  br label %40

40:                                               ; preds = %64, %39
  %41 = load i32, i32* %4, align 4
  %42 = load i32, i32* %2, align 4
  %43 = icmp sle i32 %41, %42
  br i1 %43, label %44, label %67

44:                                               ; preds = %40
  %45 = load i32, i32* %5, align 4
  %46 = load i32, i32* %4, align 4
  %47 = sext i32 %46 to i64
  %48 = getelementptr inbounds [400 x i32], [400 x i32]* %1, i64 0, i64 %47
  %49 = load i32, i32* %48, align 4
  %50 = icmp slt i32 %45, %49
  br i1 %50, label %51, label %63

51:                                               ; preds = %44
  %52 = load i32, i32* %4, align 4
  %53 = sext i32 %52 to i64
  %54 = getelementptr inbounds [400 x i32], [400 x i32]* %1, i64 0, i64 %53
  %55 = load i32, i32* %54, align 4
  %56 = load i32, i32* %3, align 4
  %57 = icmp slt i32 %55, %56
  br i1 %57, label %58, label %63

58:                                               ; preds = %51
  %59 = load i32, i32* %4, align 4
  %60 = sext i32 %59 to i64
  %61 = getelementptr inbounds [400 x i32], [400 x i32]* %1, i64 0, i64 %60
  %62 = load i32, i32* %61, align 4
  store i32 %62, i32* %5, align 4
  br label %63

63:                                               ; preds = %58, %51, %44
  br label %64

64:                                               ; preds = %63
  %65 = load i32, i32* %4, align 4
  %66 = add nsw i32 %65, 1
  store i32 %66, i32* %4, align 4
  br label %40

67:                                               ; preds = %40
  %68 = load i32, i32* %5, align 4
  %69 = icmp eq i32 %68, -1
  br i1 %69, label %70, label %72

70:                                               ; preds = %67
  %71 = call i32 (i8*, ...) @printf(i8* getelementptr inbounds ([3 x i8], [3 x i8]* @.str.2, i64 0, i64 0))
  br label %75

72:                                               ; preds = %67
  %73 = load i32, i32* %5, align 4
  %74 = call i32 (i8*, ...) @printf(i8* getelementptr inbounds ([3 x i8], [3 x i8]* @.str, i64 0, i64 0), i32 %73)
  br label %75

75:                                               ; preds = %72, %70
  ret void
}

declare dso_local i32 @__isoc99_scanf(i8*, ...) #1

declare dso_local i32 @printf(i8*, ...) #1


!llvm.module.flags = !{!0}
!llvm.ident = !{!1}

!0 = !{i32 1, !"wchar_size", i32 4}
!1 = !{!"clang version 10.0.0-4ubuntu1 "}
